target datalayout = "e-m:e-p270:32:32-p271:32:32-p272:64:64-i64:64-i128:128-f80:128-n8:16:32:64-S128"
target triple = "x86_64-pc-linux-gnu"

%"class.draco::ObjEncoder" = type { ptr, ptr, ptr, ptr, ptr, ptr, [20 x i8], ptr, ptr, ptr, %"class.std::unordered_map", i32, %"class.std::unordered_map", i32, %"class.std::__cxx11::basic_string" }
%"class.std::unordered_map" = type { %"class.std::_Hashtable" }
%"class.std::_Hashtable" = type { ptr, i64, %"struct.std::__detail::_Hash_node_base", i64, %"struct.std::__detail::_Prime_rehash_policy", ptr }
%"struct.std::__detail::_Hash_node_base" = type { ptr }
%"struct.std::__detail::_Prime_rehash_policy" = type { float, i64 }
%"class.std::__cxx11::basic_string" = type { %"struct.std::__cxx11::basic_string<char>::_Alloc_hider", i64, %union.anon }
%"struct.std::__cxx11::basic_string<char>::_Alloc_hider" = type { ptr }
%union.anon = type { i64, [8 x i8] }

; Function Attrs: mustprogress nounwind uwtable
define linkonce_odr dso_local void @_ZNSt11char_traitsIcE6assignERcRKc(ptr noundef nonnull align 1 dereferenceable(1) %0, ptr noundef nonnull align 1 dereferenceable(1) %1) #4 comdat align 2 {
  %3 = alloca ptr, align 8
  %4 = alloca ptr, align 8
  store ptr %0, ptr %3, align 8, !tbaa !76
  store ptr %1, ptr %4, align 8, !tbaa !76
  %5 = load ptr, ptr %4, align 8, !tbaa !76
  %6 = load i8, ptr %5, align 1, !tbaa !71
  %7 = load ptr, ptr %3, align 8, !tbaa !76
  store i8 %6, ptr %7, align 1, !tbaa !71
  ret void
}

; Function Attrs: mustprogress nounwind uwtable
define available_externally noundef ptr @_ZNKSt7__cxx1112basic_stringIcSt11char_traitsIcESaIcEE7_M_dataEv(ptr noundef nonnull align 8 dereferenceable(32) %0) #4 align 2 {
  %2 = alloca ptr, align 8
  store ptr %0, ptr %2, align 8, !tbaa !39
  %3 = load ptr, ptr %2, align 8
  %4 = getelementptr inbounds nuw %"class.std::__cxx11::basic_string", ptr %3, i32 0, i32 0
  %5 = getelementptr inbounds nuw %"struct.std::__cxx11::basic_string<char>::_Alloc_hider", ptr %4, i32 0, i32 0
  %6 = load ptr, ptr %5, align 8, !tbaa !349
  ret ptr %6
}

; Function Attrs: mustprogress nounwind uwtable
define available_externally void @_ZNSt7__cxx1112basic_stringIcSt11char_traitsIcESaIcEE9_M_lengthEm(ptr noundef nonnull align 8 dereferenceable(32) %0, i64 noundef %1) #4 align 2 {
  %3 = alloca ptr, align 8
  %4 = alloca i64, align 8
  store ptr %0, ptr %3, align 8, !tbaa !39
  store i64 %1, ptr %4, align 8, !tbaa !132
  %5 = load ptr, ptr %3, align 8
  %6 = load i64, ptr %4, align 8, !tbaa !132
  %7 = getelementptr inbounds nuw %"class.std::__cxx11::basic_string", ptr %5, i32 0, i32 1
  store i64 %6, ptr %7, align 8, !tbaa !134
  ret void
}

; Function Attrs: noinline noreturn nounwind uwtable
define linkonce_odr hidden void @__clang_call_terminate(ptr noundef %0) #11 comdat {
  %2 = call ptr @__cxa_begin_catch(ptr %0) #3
  call void @_ZSt9terminatev() #20
  unreachable
}

; Function Attrs: mustprogress uwtable
define available_externally void @_ZNSt7__cxx1112basic_stringIcSt11char_traitsIcESaIcEE13_M_set_lengthEm(ptr noundef nonnull align 8 dereferenceable(32) %0, i64 noundef %1) #5 align 2 {
  %3 = alloca ptr, align 8
  %4 = alloca i64, align 8
  %5 = alloca i8, align 1
  store ptr %0, ptr %3, align 8, !tbaa !39
  store i64 %1, ptr %4, align 8, !tbaa !132
  %6 = load ptr, ptr %3, align 8
  %7 = load i64, ptr %4, align 8, !tbaa !132
  call void @_ZNSt7__cxx1112basic_stringIcSt11char_traitsIcESaIcEE9_M_lengthEm(ptr noundef nonnull align 8 dereferenceable(32) %6, i64 noundef %7)
  %8 = call noundef ptr @_ZNKSt7__cxx1112basic_stringIcSt11char_traitsIcESaIcEE7_M_dataEv(ptr noundef nonnull align 8 dereferenceable(32) %6)
  %9 = load i64, ptr %4, align 8, !tbaa !132
  %10 = getelementptr inbounds nuw i8, ptr %8, i64 %9
  call void @llvm.lifetime.start.p0(i64 1, ptr %5) #3
  store i8 0, ptr %5, align 1, !tbaa !71
  call void @_ZNSt11char_traitsIcE6assignERcRKc(ptr noundef nonnull align 1 dereferenceable(1) %10, ptr noundef nonnull align 1 dereferenceable(1) %5) #3
  call void @llvm.lifetime.end.p0(i64 1, ptr %5) #3
  ret void
}

; Function Attrs: mustprogress nounwind uwtable
define available_externally void @_ZNSt7__cxx1112basic_stringIcSt11char_traitsIcESaIcEE5clearEv(ptr noundef nonnull align 8 dereferenceable(32) %0) #4 align 2 personality ptr @__gxx_personality_v0 {
  %2 = alloca ptr, align 8
  store ptr %0, ptr %2, align 8, !tbaa !39
  %3 = load ptr, ptr %2, align 8
  invoke void @_ZNSt7__cxx1112basic_stringIcSt11char_traitsIcESaIcEE13_M_set_lengthEm(ptr noundef nonnull align 8 dereferenceable(32) %3, i64 noundef 0)
          to label %4 unwind label %5

4:                                                ; preds = %1
  ret void

5:                                                ; preds = %1
  %6 = landingpad { ptr, i32 }
          catch ptr null
  %7 = extractvalue { ptr, i32 } %6, 0
  call void @__clang_call_terminate(ptr %7) #20
  unreachable
}

; Function Attrs: mustprogress nounwind uwtable
define dso_local noundef zeroext i1 @_ZN5draco10ObjEncoder14ExitAndCleanupEb(ptr noundef nonnull align 8 dereferenceable(256) %0, i1 noundef zeroext %1) #4 align 2 {
  %3 = alloca ptr, align 8
  %4 = alloca i8, align 1
  store ptr %0, ptr %3, align 8, !tbaa !4
  %5 = zext i1 %1 to i8
  store i8 %5, ptr %4, align 1, !tbaa !52
  %6 = load ptr, ptr %3, align 8
  %7 = getelementptr inbounds nuw %"class.draco::ObjEncoder", ptr %6, i32 0, i32 9
  store ptr null, ptr %7, align 8, !tbaa !34
  %8 = getelementptr inbounds nuw %"class.draco::ObjEncoder", ptr %6, i32 0, i32 8
  store ptr null, ptr %8, align 8, !tbaa !33
  %9 = getelementptr inbounds nuw %"class.draco::ObjEncoder", ptr %6, i32 0, i32 7
  store ptr null, ptr %9, align 8, !tbaa !32
  %10 = getelementptr inbounds nuw %"class.draco::ObjEncoder", ptr %6, i32 0, i32 0
  store ptr null, ptr %10, align 8, !tbaa !9
  %11 = getelementptr inbounds nuw %"class.draco::ObjEncoder", ptr %6, i32 0, i32 1
  store ptr null, ptr %11, align 8, !tbaa !27
  %12 = getelementptr inbounds nuw %"class.draco::ObjEncoder", ptr %6, i32 0, i32 2
  store ptr null, ptr %12, align 8, !tbaa !28
  %13 = getelementptr inbounds nuw %"class.draco::ObjEncoder", ptr %6, i32 0, i32 3
  store ptr null, ptr %13, align 8, !tbaa !29
  %14 = getelementptr inbounds nuw %"class.draco::ObjEncoder", ptr %6, i32 0, i32 4
  store ptr null, ptr %14, align 8, !tbaa !30
  %15 = getelementptr inbounds nuw %"class.draco::ObjEncoder", ptr %6, i32 0, i32 5
  store ptr null, ptr %15, align 8, !tbaa !31
  %16 = getelementptr inbounds nuw %"class.draco::ObjEncoder", ptr %6, i32 0, i32 11
  store i32 -1, ptr %16, align 8, !tbaa !35
  %17 = getelementptr inbounds nuw %"class.draco::ObjEncoder", ptr %6, i32 0, i32 13
  store i32 -1, ptr %17, align 8, !tbaa !36
  %18 = getelementptr inbounds nuw %"class.draco::ObjEncoder", ptr %6, i32 0, i32 14
  call void @_ZNSt7__cxx1112basic_stringIcSt11char_traitsIcESaIcEE5clearEv(ptr noundef nonnull align 8 dereferenceable(32) %18) #3
  %19 = load i8, ptr %4, align 1, !tbaa !52, !range !54, !noundef !55
  %20 = trunc i8 %19 to i1
  ret i1 %20
}