; Function Attrs: mustprogress nofree norecurse nosync nounwind willreturn memory(write, argmem: readwrite, inaccessiblemem: none) uwtable
define dso_local noundef zeroext i1 @_ZN5draco10ObjEncoder14ExitAndCleanupEb(ptr noundef nonnull align 8 captures(none) dereferenceable(256) initializes((0, 48), (72, 96), (152, 156), (216, 220), (232, 240)) %0, i1 noundef returned zeroext %1) local_unnamed_addr #7 align 2 personality ptr @__gxx_personality_v0 {
  %3 = getelementptr inbounds nuw i8, ptr %0, i64 72
  %4 = getelementptr inbounds nuw i8, ptr %0, i64 152
  tail call void @llvm.memset.p0.i64(ptr noundef nonnull align 8 dereferenceable(48) %0, i8 0, i64 48, i1 false)
  tail call void @llvm.memset.p0.i64(ptr noundef nonnull align 8 dereferenceable(24) %3, i8 0, i64 24, i1 false)
  store i32 -1, ptr %4, align 8, !tbaa !17
  %5 = getelementptr inbounds nuw i8, ptr %0, i64 216
  store i32 -1, ptr %5, align 8, !tbaa !28
  %6 = getelementptr inbounds nuw i8, ptr %0, i64 224
  %7 = getelementptr inbounds nuw i8, ptr %0, i64 232
  store i64 0, ptr %7, align 8, !tbaa !30
  %8 = load ptr, ptr %6, align 8, !tbaa !36
  store i8 0, ptr %8, align 1, !tbaa !31
  ret i1 %1
}